; Function Attrs: mustprogress uwtable
define ptr @utrans_open_77(ptr noundef %0, i32 noundef %1, ptr noundef %2, i32 noundef %3, ptr noundef %4, ptr noundef %5) local_unnamed_addr #4 personality ptr @__gxx_personality_v0 {
  %7 = alloca %"class.icu_77::UnicodeString", align 8
  call void @llvm.lifetime.start.p0(i64 64, ptr nonnull %7) #10
  call void @_ZN6icu_7713UnicodeStringC1EPKciNS0_10EInvariantE(ptr noundef nonnull align 8 dereferenceable(64) %7, ptr noundef %0, i32 noundef -1, i32 noundef 0)
  %8 = getelementptr inbounds nuw i8, ptr %7, i64 8
  %9 = load i16, ptr %8, align 8, !tbaa !20
  %10 = and i16 %9, 17
  %.not.i = icmp eq i16 %10, 0
  br i1 %.not.i, label %11, label %18

11:                                               ; preds = %6
  %12 = and i16 %9, 2
  %.not2.i = icmp eq i16 %12, 0
  br i1 %.not2.i, label %15, label %13

13:                                               ; preds = %11
  %14 = getelementptr inbounds nuw i8, ptr %7, i64 10
  br label %18

15:                                               ; preds = %11
  %16 = getelementptr inbounds nuw i8, ptr %7, i64 24
  %17 = load ptr, ptr %16, align 8, !tbaa !20
  br label %18

18:                                               ; preds = %15, %13, %6
  %.0.i = phi ptr [ %14, %13 ], [ %17, %15 ], [ null, %6 ]
  %19 = icmp slt i16 %9, 0
  %20 = ashr i16 %9, 5
  %21 = sext i16 %20 to i32
  %22 = getelementptr inbounds nuw i8, ptr %7, i64 12
  %23 = load i32, ptr %22, align 4
  %24 = select i1 %19, i32 %23, i32 %21
  %25 = invoke ptr @utrans_openU_77(ptr noundef %.0.i, i32 noundef %24, i32 noundef %1, ptr noundef %2, i32 noundef %3, ptr noundef %4, ptr noundef %5)
          to label %26 unwind label %27

26:                                               ; preds = %18
  call void @_ZN6icu_7713UnicodeStringD1Ev(ptr noundef nonnull align 8 dereferenceable(64) %7) #10
  call void @llvm.lifetime.end.p0(i64 64, ptr nonnull %7) #10
  ret ptr %25

27:                                               ; preds = %18
  %28 = landingpad { ptr, i32 }
          cleanup
  call void @_ZN6icu_7713UnicodeStringD1Ev(ptr noundef nonnull align 8 dereferenceable(64) %7) #10
  call void @llvm.lifetime.end.p0(i64 64, ptr nonnull %7) #10
  resume { ptr, i32 } %28
}